; Function Attrs: nounwind uwtable
define noalias nonnull ptr @l_Lean_Elab_liftMacroM___at_Lean_Elab_Command_NameGen_mkBaseNameWithSuffix_x27___spec__1___lambda__3(ptr noundef %0, ptr noundef %1, ptr noundef %2, ptr noundef %3, ptr noundef readnone captures(none) %4, ptr noundef %5) local_unnamed_addr #1 {
  %7 = tail call ptr @l_Lean_ResolveName_resolveNamespace(ptr noundef %0, ptr noundef %1, ptr noundef %2, ptr noundef %3) #4
  tail call void @lean_inc_heartbeat() #4
  %8 = tail call noalias ptr @mi_malloc_small(i64 noundef 24) #4
  %9 = icmp eq ptr %8, null
  br i1 %9, label %10, label %lean_alloc_ctor.exit

10:                                               ; preds = %6
  tail call void @lean_internal_panic_out_of_memory() #5
  unreachable

lean_alloc_ctor.exit:                             ; preds = %6
  %11 = getelementptr inbounds nuw i8, ptr %8, i64 4
  store i32 1, ptr %8, align 4, !tbaa !4
  store i32 131096, ptr %11, align 4
  %12 = getelementptr inbounds nuw i8, ptr %8, i64 8
  store ptr %7, ptr %12, align 8, !tbaa !9
  %13 = getelementptr inbounds nuw i8, ptr %8, i64 16
  store ptr %5, ptr %13, align 8, !tbaa !9
  ret ptr %8
}